target datalayout = "e-m:e-p270:32:32-p271:32:32-p272:64:64-i64:64-i128:128-f80:128-n8:16:32:64-S128"
target triple = "x86_64-pc-linux-gnu"

%"class.vcg::Point3" = type { [3 x float] }
%"class.vcg::Line3" = type { %"class.vcg::Point3", %"class.vcg::Point3" }
%"class.vcg::Plane3" = type { float, %"class.vcg::Point3" }

; Function Attrs: mustprogress nounwind uwtable
define linkonce_odr noundef float @_ZNK3vcg6Point3IfEmlERKS1_(ptr noundef nonnull align 4 dereferenceable(12) %0, ptr noundef nonnull align 4 dereferenceable(12) %1) #0 comdat align 2 {
  %3 = alloca ptr, align 8
  %4 = alloca ptr, align 8
  store ptr %0, ptr %3, align 8
  store ptr %1, ptr %4, align 8
  %5 = load ptr, ptr %3, align 8
  %6 = getelementptr inbounds %"class.vcg::Point3", ptr %5, i32 0, i32 0
  %7 = getelementptr inbounds [3 x float], ptr %6, i64 0, i64 0
  %8 = load float, ptr %7, align 4
  %9 = load ptr, ptr %4, align 8
  %10 = getelementptr inbounds %"class.vcg::Point3", ptr %9, i32 0, i32 0
  %11 = getelementptr inbounds [3 x float], ptr %10, i64 0, i64 0
  %12 = load float, ptr %11, align 4
  %13 = getelementptr inbounds %"class.vcg::Point3", ptr %5, i32 0, i32 0
  %14 = getelementptr inbounds [3 x float], ptr %13, i64 0, i64 1
  %15 = load float, ptr %14, align 4
  %16 = load ptr, ptr %4, align 8
  %17 = getelementptr inbounds %"class.vcg::Point3", ptr %16, i32 0, i32 0
  %18 = getelementptr inbounds [3 x float], ptr %17, i64 0, i64 1
  %19 = load float, ptr %18, align 4
  %20 = fmul float %15, %19
  %21 = call float @llvm.fmuladd.f32(float %8, float %12, float %20)
  %22 = getelementptr inbounds %"class.vcg::Point3", ptr %5, i32 0, i32 0
  %23 = getelementptr inbounds [3 x float], ptr %22, i64 0, i64 2
  %24 = load float, ptr %23, align 4
  %25 = load ptr, ptr %4, align 8
  %26 = getelementptr inbounds %"class.vcg::Point3", ptr %25, i32 0, i32 0
  %27 = getelementptr inbounds [3 x float], ptr %26, i64 0, i64 2
  %28 = load float, ptr %27, align 4
  %29 = call float @llvm.fmuladd.f32(float %24, float %28, float %21)
  ret float %29
}

; Function Attrs: mustprogress nounwind uwtable
define linkonce_odr void @_ZN3vcg5Line3IfLb0EE12SetDirectionERKNS_6Point3IfEE(ptr noundef nonnull align 4 dereferenceable(24) %0, ptr noundef nonnull align 4 dereferenceable(12) %1) #0 comdat align 2 {
  %3 = alloca ptr, align 8
  %4 = alloca ptr, align 8
  store ptr %0, ptr %3, align 8
  store ptr %1, ptr %4, align 8
  %5 = load ptr, ptr %3, align 8
  %6 = load ptr, ptr %4, align 8
  %7 = getelementptr inbounds %"class.vcg::Line3", ptr %5, i32 0, i32 1
  call void @llvm.memcpy.p0.p0.i64(ptr align 4 %7, ptr align 4 %6, i64 12, i1 false)
  ret void
}

; Function Attrs: mustprogress nounwind uwtable
define linkonce_odr void @_ZN3vcg5Line3IfLb0EE9SetOriginERKNS_6Point3IfEE(ptr noundef nonnull align 4 dereferenceable(24) %0, ptr noundef nonnull align 4 dereferenceable(12) %1) #0 comdat align 2 {
  %3 = alloca ptr, align 8
  %4 = alloca ptr, align 8
  store ptr %0, ptr %3, align 8
  store ptr %1, ptr %4, align 8
  %5 = load ptr, ptr %3, align 8
  %6 = load ptr, ptr %4, align 8
  %7 = getelementptr inbounds %"class.vcg::Line3", ptr %5, i32 0, i32 0
  call void @llvm.memcpy.p0.p0.i64(ptr align 4 %7, ptr align 4 %6, i64 12, i1 false)
  ret void
}

; Function Attrs: mustprogress uwtable
define linkonce_odr { <2 x float>, float } @_ZNK3vcg6Point3IfEmlEf(ptr noundef nonnull align 4 dereferenceable(12) %0, float noundef %1) #3 comdat align 2 {
  %3 = alloca %"class.vcg::Point3", align 4
  %4 = alloca ptr, align 8
  %5 = alloca float, align 4
  %6 = alloca { <2 x float>, float }, align 8
  store ptr %0, ptr %4, align 8
  store float %1, ptr %5, align 4
  %7 = load ptr, ptr %4, align 8
  %8 = getelementptr inbounds %"class.vcg::Point3", ptr %7, i32 0, i32 0
  %9 = getelementptr inbounds [3 x float], ptr %8, i64 0, i64 0
  %10 = load float, ptr %9, align 4
  %11 = load float, ptr %5, align 4
  %12 = fmul float %10, %11
  %13 = getelementptr inbounds %"class.vcg::Point3", ptr %7, i32 0, i32 0
  %14 = getelementptr inbounds [3 x float], ptr %13, i64 0, i64 1
  %15 = load float, ptr %14, align 4
  %16 = load float, ptr %5, align 4
  %17 = fmul float %15, %16
  %18 = getelementptr inbounds %"class.vcg::Point3", ptr %7, i32 0, i32 0
  %19 = getelementptr inbounds [3 x float], ptr %18, i64 0, i64 2
  %20 = load float, ptr %19, align 4
  %21 = load float, ptr %5, align 4
  %22 = fmul float %20, %21
  call void @_ZN3vcg6Point3IfEC2Efff(ptr noundef nonnull align 4 dereferenceable(12) %3, float noundef %12, float noundef %17, float noundef %22)
  %23 = getelementptr inbounds %"class.vcg::Point3", ptr %3, i32 0, i32 0
  call void @llvm.memcpy.p0.p0.i64(ptr align 8 %6, ptr align 4 %23, i64 12, i1 false)
  %24 = load { <2 x float>, float }, ptr %6, align 8
  ret { <2 x float>, float } %24
}

; Function Attrs: mustprogress uwtable
define linkonce_odr noundef float @_ZNK3vcg6Point3IfE3dotERKS1_(ptr noundef nonnull align 4 dereferenceable(12) %0, ptr noundef nonnull align 4 dereferenceable(12) %1) #3 comdat align 2 {
  %3 = alloca ptr, align 8
  %4 = alloca ptr, align 8
  store ptr %0, ptr %3, align 8
  store ptr %1, ptr %4, align 8
  %5 = load ptr, ptr %3, align 8
  %6 = load ptr, ptr %4, align 8
  %7 = call noundef float @_ZNK3vcg6Point3IfEmlERKS1_(ptr noundef nonnull align 4 dereferenceable(12) %5, ptr noundef nonnull align 4 dereferenceable(12) %6)
  ret float %7
}

; Function Attrs: mustprogress nounwind uwtable
define linkonce_odr void @_ZN3vcg6Point3IfEC2Efff(ptr noundef nonnull align 4 dereferenceable(12) %0, float noundef %1, float noundef %2, float noundef %3) unnamed_addr #0 comdat align 2 {
  %5 = alloca ptr, align 8
  %6 = alloca float, align 4
  %7 = alloca float, align 4
  %8 = alloca float, align 4
  store ptr %0, ptr %5, align 8
  store float %1, ptr %6, align 4
  store float %2, ptr %7, align 4
  store float %3, ptr %8, align 4
  %9 = load ptr, ptr %5, align 8
  %10 = load float, ptr %6, align 4
  %11 = getelementptr inbounds %"class.vcg::Point3", ptr %9, i32 0, i32 0
  %12 = getelementptr inbounds [3 x float], ptr %11, i64 0, i64 0
  store float %10, ptr %12, align 4
  %13 = load float, ptr %7, align 4
  %14 = getelementptr inbounds %"class.vcg::Point3", ptr %9, i32 0, i32 0
  %15 = getelementptr inbounds [3 x float], ptr %14, i64 0, i64 1
  store float %13, ptr %15, align 4
  %16 = load float, ptr %8, align 4
  %17 = getelementptr inbounds %"class.vcg::Point3", ptr %9, i32 0, i32 0
  %18 = getelementptr inbounds [3 x float], ptr %17, i64 0, i64 2
  store float %16, ptr %18, align 4
  ret void
}

; Function Attrs: mustprogress uwtable
define linkonce_odr void @_ZN3vcg5Line3IfLb0EEC2ERKNS_6Point3IfEES5_(ptr noundef nonnull align 4 dereferenceable(24) %0, ptr noundef nonnull align 4 dereferenceable(12) %1, ptr noundef nonnull align 4 dereferenceable(12) %2) unnamed_addr #3 comdat align 2 {
  %4 = alloca ptr, align 8
  %5 = alloca ptr, align 8
  %6 = alloca ptr, align 8
  store ptr %0, ptr %4, align 8
  store ptr %1, ptr %5, align 8
  store ptr %2, ptr %6, align 8
  %7 = load ptr, ptr %4, align 8
  %8 = getelementptr inbounds %"class.vcg::Line3", ptr %7, i32 0, i32 0
  call void @_ZN3vcg6Point3IfEC2Ev(ptr noundef nonnull align 4 dereferenceable(12) %8)
  %9 = getelementptr inbounds %"class.vcg::Line3", ptr %7, i32 0, i32 1
  call void @_ZN3vcg6Point3IfEC2Ev(ptr noundef nonnull align 4 dereferenceable(12) %9)
  %10 = load ptr, ptr %5, align 8
  call void @_ZN3vcg5Line3IfLb0EE9SetOriginERKNS_6Point3IfEE(ptr noundef nonnull align 4 dereferenceable(24) %7, ptr noundef nonnull align 4 dereferenceable(12) %10)
  %11 = load ptr, ptr %6, align 8
  call void @_ZN3vcg5Line3IfLb0EE12SetDirectionERKNS_6Point3IfEE(ptr noundef nonnull align 4 dereferenceable(24) %7, ptr noundef nonnull align 4 dereferenceable(12) %11)
  ret void
}

; Function Attrs: mustprogress uwtable
define linkonce_odr { <2 x float>, float } @_ZNK3vcg6Point3IfEmiERKS1_(ptr noundef nonnull align 4 dereferenceable(12) %0, ptr noundef nonnull align 4 dereferenceable(12) %1) #3 comdat align 2 {
  %3 = alloca %"class.vcg::Point3", align 4
  %4 = alloca ptr, align 8
  %5 = alloca ptr, align 8
  %6 = alloca { <2 x float>, float }, align 8
  store ptr %0, ptr %4, align 8
  store ptr %1, ptr %5, align 8
  %7 = load ptr, ptr %4, align 8
  %8 = getelementptr inbounds %"class.vcg::Point3", ptr %7, i32 0, i32 0
  %9 = getelementptr inbounds [3 x float], ptr %8, i64 0, i64 0
  %10 = load float, ptr %9, align 4
  %11 = load ptr, ptr %5, align 8
  %12 = getelementptr inbounds %"class.vcg::Point3", ptr %11, i32 0, i32 0
  %13 = getelementptr inbounds [3 x float], ptr %12, i64 0, i64 0
  %14 = load float, ptr %13, align 4
  %15 = fsub float %10, %14
  %16 = getelementptr inbounds %"class.vcg::Point3", ptr %7, i32 0, i32 0
  %17 = getelementptr inbounds [3 x float], ptr %16, i64 0, i64 1
  %18 = load float, ptr %17, align 4
  %19 = load ptr, ptr %5, align 8
  %20 = getelementptr inbounds %"class.vcg::Point3", ptr %19, i32 0, i32 0
  %21 = getelementptr inbounds [3 x float], ptr %20, i64 0, i64 1
  %22 = load float, ptr %21, align 4
  %23 = fsub float %18, %22
  %24 = getelementptr inbounds %"class.vcg::Point3", ptr %7, i32 0, i32 0
  %25 = getelementptr inbounds [3 x float], ptr %24, i64 0, i64 2
  %26 = load float, ptr %25, align 4
  %27 = load ptr, ptr %5, align 8
  %28 = getelementptr inbounds %"class.vcg::Point3", ptr %27, i32 0, i32 0
  %29 = getelementptr inbounds [3 x float], ptr %28, i64 0, i64 2
  %30 = load float, ptr %29, align 4
  %31 = fsub float %26, %30
  call void @_ZN3vcg6Point3IfEC2Efff(ptr noundef nonnull align 4 dereferenceable(12) %3, float noundef %15, float noundef %23, float noundef %31)
  %32 = getelementptr inbounds %"class.vcg::Point3", ptr %3, i32 0, i32 0
  call void @llvm.memcpy.p0.p0.i64(ptr align 8 %6, ptr align 4 %32, i64 12, i1 false)
  %33 = load { <2 x float>, float }, ptr %6, align 8
  ret { <2 x float>, float } %33
}

; Function Attrs: mustprogress uwtable
define linkonce_odr { <2 x float>, float } @_ZNK3vcg6Plane3IfLb1EE10ProjectionERKNS_6Point3IfEE(ptr noundef nonnull align 4 dereferenceable(16) %0, ptr noundef nonnull align 4 dereferenceable(12) %1) #2 comdat align 2 {
  %3 = alloca %"class.vcg::Point3", align 4
  %4 = alloca ptr, align 8
  %5 = alloca ptr, align 8
  %6 = alloca float, align 4
  %7 = alloca %"class.vcg::Point3", align 4
  %8 = alloca { <2 x float>, float }, align 8
  %9 = alloca { <2 x float>, float }, align 8
  %10 = alloca { <2 x float>, float }, align 8
  store ptr %0, ptr %4, align 8
  store ptr %1, ptr %5, align 8
  %11 = load ptr, ptr %4, align 8
  %12 = load ptr, ptr %5, align 8
  %13 = getelementptr inbounds %"class.vcg::Plane3", ptr %11, i32 0, i32 1
  %14 = call noundef float @_ZNK3vcg6Point3IfE3dotERKS1_(ptr noundef nonnull align 4 dereferenceable(12) %12, ptr noundef nonnull align 4 dereferenceable(12) %13)
  %15 = getelementptr inbounds %"class.vcg::Plane3", ptr %11, i32 0, i32 0
  %16 = load float, ptr %15, align 4
  %17 = fsub float %14, %16
  store float %17, ptr %6, align 4
  %18 = load ptr, ptr %5, align 8
  %19 = getelementptr inbounds %"class.vcg::Plane3", ptr %11, i32 0, i32 1
  %20 = load float, ptr %6, align 4
  %21 = call { <2 x float>, float } @_ZNK3vcg6Point3IfEmlEf(ptr noundef nonnull align 4 dereferenceable(12) %19, float noundef %20)
  %22 = getelementptr inbounds %"class.vcg::Point3", ptr %7, i32 0, i32 0
  store { <2 x float>, float } %21, ptr %8, align 8
  call void @llvm.memcpy.p0.p0.i64(ptr align 4 %22, ptr align 8 %8, i64 12, i1 false)
  %23 = call { <2 x float>, float } @_ZNK3vcg6Point3IfEmiERKS1_(ptr noundef nonnull align 4 dereferenceable(12) %18, ptr noundef nonnull align 4 dereferenceable(12) %7)
  %24 = getelementptr inbounds %"class.vcg::Point3", ptr %3, i32 0, i32 0
  store { <2 x float>, float } %23, ptr %9, align 8
  call void @llvm.memcpy.p0.p0.i64(ptr align 4 %24, ptr align 8 %9, i64 12, i1 false)
  %25 = getelementptr inbounds %"class.vcg::Point3", ptr %3, i32 0, i32 0
  call void @llvm.memcpy.p0.p0.i64(ptr align 8 %10, ptr align 4 %25, i64 12, i1 false)
  %26 = load { <2 x float>, float }, ptr %10, align 8
  ret { <2 x float>, float } %26
}

; Function Attrs: mustprogress nounwind uwtable
define linkonce_odr void @_ZN3vcg6Point3IfEC2Ev(ptr noundef nonnull align 4 dereferenceable(12) %0) unnamed_addr #0 comdat align 2 {
  %2 = alloca ptr, align 8
  store ptr %0, ptr %2, align 8
  ret void
}

; Function Attrs: mustprogress uwtable
define linkonce_odr { <2 x float>, float } @_ZNK3vcg6Point3IfEplERKS1_(ptr noundef nonnull align 4 dereferenceable(12) %0, ptr noundef nonnull align 4 dereferenceable(12) %1) #3 comdat align 2 {
  %3 = alloca %"class.vcg::Point3", align 4
  %4 = alloca ptr, align 8
  %5 = alloca ptr, align 8
  %6 = alloca { <2 x float>, float }, align 8
  store ptr %0, ptr %4, align 8
  store ptr %1, ptr %5, align 8
  %7 = load ptr, ptr %4, align 8
  %8 = getelementptr inbounds %"class.vcg::Point3", ptr %7, i32 0, i32 0
  %9 = getelementptr inbounds [3 x float], ptr %8, i64 0, i64 0
  %10 = load float, ptr %9, align 4
  %11 = load ptr, ptr %5, align 8
  %12 = getelementptr inbounds %"class.vcg::Point3", ptr %11, i32 0, i32 0
  %13 = getelementptr inbounds [3 x float], ptr %12, i64 0, i64 0
  %14 = load float, ptr %13, align 4
  %15 = fadd float %10, %14
  %16 = getelementptr inbounds %"class.vcg::Point3", ptr %7, i32 0, i32 0
  %17 = getelementptr inbounds [3 x float], ptr %16, i64 0, i64 1
  %18 = load float, ptr %17, align 4
  %19 = load ptr, ptr %5, align 8
  %20 = getelementptr inbounds %"class.vcg::Point3", ptr %19, i32 0, i32 0
  %21 = getelementptr inbounds [3 x float], ptr %20, i64 0, i64 1
  %22 = load float, ptr %21, align 4
  %23 = fadd float %18, %22
  %24 = getelementptr inbounds %"class.vcg::Point3", ptr %7, i32 0, i32 0
  %25 = getelementptr inbounds [3 x float], ptr %24, i64 0, i64 2
  %26 = load float, ptr %25, align 4
  %27 = load ptr, ptr %5, align 8
  %28 = getelementptr inbounds %"class.vcg::Point3", ptr %27, i32 0, i32 0
  %29 = getelementptr inbounds [3 x float], ptr %28, i64 0, i64 2
  %30 = load float, ptr %29, align 4
  %31 = fadd float %26, %30
  call void @_ZN3vcg6Point3IfEC2Efff(ptr noundef nonnull align 4 dereferenceable(12) %3, float noundef %15, float noundef %23, float noundef %31)
  %32 = getelementptr inbounds %"class.vcg::Point3", ptr %3, i32 0, i32 0
  call void @llvm.memcpy.p0.p0.i64(ptr align 8 %6, ptr align 4 %32, i64 12, i1 false)
  %33 = load { <2 x float>, float }, ptr %6, align 8
  ret { <2 x float>, float } %33
}

; Function Attrs: mustprogress nounwind uwtable
define linkonce_odr noundef nonnull align 4 dereferenceable(12) ptr @_ZNK3vcg5Line3IfLb0EE9DirectionEv(ptr noundef nonnull align 4 dereferenceable(24) %0) #0 comdat align 2 {
  %2 = alloca ptr, align 8
  store ptr %0, ptr %2, align 8
  %3 = load ptr, ptr %2, align 8
  %4 = getelementptr inbounds %"class.vcg::Line3", ptr %3, i32 0, i32 1
  ret ptr %4
}

; Function Attrs: mustprogress nounwind uwtable
define linkonce_odr noundef nonnull align 4 dereferenceable(12) ptr @_ZNK3vcg5Line3IfLb0EE6OriginEv(ptr noundef nonnull align 4 dereferenceable(24) %0) #0 comdat align 2 {
  %2 = alloca ptr, align 8
  store ptr %0, ptr %2, align 8
  %3 = load ptr, ptr %2, align 8
  %4 = getelementptr inbounds %"class.vcg::Line3", ptr %3, i32 0, i32 0
  ret ptr %4
}

; Function Attrs: mustprogress uwtable
define void @_ZN3vcg10trackutils18ProjectLineOnPlaneERKNS_5Line3IfLb0EEERKNS_6Plane3IfLb1EEE(ptr dead_on_unwind noalias writable sret(%"class.vcg::Line3") align 4 %0, ptr noundef nonnull align 4 dereferenceable(24) %1, ptr noundef nonnull align 4 dereferenceable(16) %2) #2 {
  %4 = alloca ptr, align 8
  %5 = alloca ptr, align 8
  %6 = alloca %"class.vcg::Point3", align 4
  %7 = alloca %"class.vcg::Point3", align 4
  %8 = alloca { <2 x float>, float }, align 8
  %9 = alloca %"class.vcg::Point3", align 4
  %10 = alloca %"class.vcg::Point3", align 4
  %11 = alloca %"class.vcg::Point3", align 4
  %12 = alloca { <2 x float>, float }, align 8
  %13 = alloca %"class.vcg::Point3", align 4
  %14 = alloca { <2 x float>, float }, align 8
  %15 = alloca %"class.vcg::Point3", align 4
  %16 = alloca { <2 x float>, float }, align 8
  store ptr %1, ptr %4, align 8
  store ptr %2, ptr %5, align 8
  %17 = load ptr, ptr %4, align 8
  %18 = call noundef nonnull align 4 dereferenceable(12) ptr @_ZNK3vcg5Line3IfLb0EE6OriginEv(ptr noundef nonnull align 4 dereferenceable(24) %17)
  call void @llvm.memcpy.p0.p0.i64(ptr align 4 %6, ptr align 4 %18, i64 12, i1 false)
  %19 = load ptr, ptr %4, align 8
  %20 = call noundef nonnull align 4 dereferenceable(12) ptr @_ZNK3vcg5Line3IfLb0EE9DirectionEv(ptr noundef nonnull align 4 dereferenceable(24) %19)
  %21 = call { <2 x float>, float } @_ZNK3vcg6Point3IfEplERKS1_(ptr noundef nonnull align 4 dereferenceable(12) %6, ptr noundef nonnull align 4 dereferenceable(12) %20)
  %22 = getelementptr inbounds %"class.vcg::Point3", ptr %7, i32 0, i32 0
  store { <2 x float>, float } %21, ptr %8, align 8
  call void @llvm.memcpy.p0.p0.i64(ptr align 4 %22, ptr align 8 %8, i64 12, i1 false)
  call void @_ZN3vcg6Point3IfEC2Ev(ptr noundef nonnull align 4 dereferenceable(12) %9)
  call void @_ZN3vcg6Point3IfEC2Ev(ptr noundef nonnull align 4 dereferenceable(12) %10)
  %23 = load ptr, ptr %5, align 8
  %24 = call { <2 x float>, float } @_ZNK3vcg6Plane3IfLb1EE10ProjectionERKNS_6Point3IfEE(ptr noundef nonnull align 4 dereferenceable(16) %23, ptr noundef nonnull align 4 dereferenceable(12) %6)
  %25 = getelementptr inbounds %"class.vcg::Point3", ptr %11, i32 0, i32 0
  store { <2 x float>, float } %24, ptr %12, align 8
  call void @llvm.memcpy.p0.p0.i64(ptr align 4 %25, ptr align 8 %12, i64 12, i1 false)
  call void @llvm.memcpy.p0.p0.i64(ptr align 4 %9, ptr align 4 %11, i64 12, i1 false)
  %26 = load ptr, ptr %5, align 8
  %27 = call { <2 x float>, float } @_ZNK3vcg6Plane3IfLb1EE10ProjectionERKNS_6Point3IfEE(ptr noundef nonnull align 4 dereferenceable(16) %26, ptr noundef nonnull align 4 dereferenceable(12) %7)
  %28 = getelementptr inbounds %"class.vcg::Point3", ptr %13, i32 0, i32 0
  store { <2 x float>, float } %27, ptr %14, align 8
  call void @llvm.memcpy.p0.p0.i64(ptr align 4 %28, ptr align 8 %14, i64 12, i1 false)
  call void @llvm.memcpy.p0.p0.i64(ptr align 4 %10, ptr align 4 %13, i64 12, i1 false)
  %29 = call { <2 x float>, float } @_ZNK3vcg6Point3IfEmiERKS1_(ptr noundef nonnull align 4 dereferenceable(12) %10, ptr noundef nonnull align 4 dereferenceable(12) %9)
  %30 = getelementptr inbounds %"class.vcg::Point3", ptr %15, i32 0, i32 0
  store { <2 x float>, float } %29, ptr %16, align 8
  call void @llvm.memcpy.p0.p0.i64(ptr align 4 %30, ptr align 8 %16, i64 12, i1 false)
  call void @_ZN3vcg5Line3IfLb0EEC2ERKNS_6Point3IfEES5_(ptr noundef nonnull align 4 dereferenceable(24) %0, ptr noundef nonnull align 4 dereferenceable(12) %9, ptr noundef nonnull align 4 dereferenceable(12) %15)
  ret void
}