; Function Attrs: mustprogress nofree norecurse nosync nounwind willreturn memory(argmem: readwrite) uwtable
define void @_ZN3vcg10trackutils18ProjectLineOnPlaneERKNS_5Line3IfLb0EEERKNS_6Plane3IfLb1EEE(ptr dead_on_unwind noalias nocapture writable writeonly sret(%"class.vcg::Line3") align 4 %0, ptr nocapture noundef nonnull readonly align 4 dereferenceable(24) %1, ptr nocapture noundef nonnull readonly align 4 dereferenceable(16) %2) local_unnamed_addr #18 {
  %.sroa.5.0..sroa_idx = getelementptr inbounds i8, ptr %1, i64 8
  %.sroa.5.0.copyload = load float, ptr %.sroa.5.0..sroa_idx, align 4
  %4 = getelementptr inbounds i8, ptr %1, i64 12
  %5 = getelementptr inbounds i8, ptr %1, i64 20
  %6 = load float, ptr %5, align 4
  %7 = fadd float %.sroa.5.0.copyload, %6
  %8 = getelementptr inbounds i8, ptr %2, i64 4
  %9 = getelementptr inbounds i8, ptr %2, i64 12
  %10 = load float, ptr %9, align 4
  %11 = load float, ptr %2, align 4
  %12 = load <2 x float>, ptr %1, align 4
  %13 = load <2 x float>, ptr %4, align 4
  %14 = fadd <2 x float> %12, %13
  %15 = load <2 x float>, ptr %8, align 4
  %16 = fmul <2 x float> %12, %15
  %17 = extractelement <2 x float> %16, i64 1
  %18 = extractelement <2 x float> %12, i64 0
  %19 = extractelement <2 x float> %15, i64 0
  %20 = tail call float @llvm.fmuladd.f32(float %18, float %19, float %17)
  %21 = tail call noundef float @llvm.fmuladd.f32(float %.sroa.5.0.copyload, float %10, float %20)
  %22 = fsub float %21, %11
  %23 = insertelement <2 x float> poison, float %22, i64 0
  %24 = shufflevector <2 x float> %23, <2 x float> poison, <2 x i32> zeroinitializer
  %25 = fmul <2 x float> %15, %24
  %26 = fmul float %10, %22
  %27 = fsub <2 x float> %12, %25
  %28 = fsub float %.sroa.5.0.copyload, %26
  %29 = fmul <2 x float> %14, %15
  %30 = extractelement <2 x float> %29, i64 1
  %31 = extractelement <2 x float> %14, i64 0
  %32 = tail call float @llvm.fmuladd.f32(float %31, float %19, float %30)
  %33 = tail call noundef float @llvm.fmuladd.f32(float %7, float %10, float %32)
  %34 = fsub float %33, %11
  %35 = insertelement <2 x float> poison, float %34, i64 0
  %36 = shufflevector <2 x float> %35, <2 x float> poison, <2 x i32> zeroinitializer
  %37 = fmul <2 x float> %15, %36
  %38 = fmul float %10, %34
  %39 = fsub <2 x float> %14, %37
  %40 = fsub float %7, %38
  %41 = fsub <2 x float> %39, %27
  %42 = fsub float %40, %28
  store <2 x float> %27, ptr %0, align 4
  %.sroa.4.0..sroa_idx = getelementptr inbounds i8, ptr %0, i64 8
  store float %28, ptr %.sroa.4.0..sroa_idx, align 4
  %43 = getelementptr inbounds i8, ptr %0, i64 12
  store <2 x float> %41, ptr %43, align 4
  %.sroa.2.0..sroa_idx28 = getelementptr inbounds i8, ptr %0, i64 20
  store float %42, ptr %.sroa.2.0..sroa_idx28, align 4
  ret void
}